; Function Attrs: nounwind uwtable
define ptr @PGTYPESnumeric_new() local_unnamed_addr #0 {
  %1 = tail call ptr @pgtypes_alloc(i64 noundef 40) #14
  %2 = icmp eq ptr %1, null
  br i1 %2, label %12, label %3

3:                                                ; preds = %0
  %4 = getelementptr inbounds nuw i8, ptr %1, i64 24
  %5 = load ptr, ptr %4, align 8
  tail call void @free(ptr noundef %5) #14
  %6 = tail call ptr @pgtypes_alloc(i64 noundef 1) #14
  store ptr %6, ptr %4, align 8
  %7 = icmp eq ptr %6, null
  br i1 %7, label %11, label %alloc_var.exit

alloc_var.exit:                                   ; preds = %3
  store i8 0, ptr %6, align 1
  %8 = load ptr, ptr %4, align 8
  %9 = getelementptr inbounds nuw i8, ptr %8, i64 1
  %10 = getelementptr inbounds nuw i8, ptr %1, i64 32
  store ptr %9, ptr %10, align 8
  store i32 0, ptr %1, align 8
  br label %12

11:                                               ; preds = %3
  tail call void @free(ptr noundef nonnull %1) #14
  br label %12

12:                                               ; preds = %alloc_var.exit, %0, %11
  %.0 = phi ptr [ null, %11 ], [ null, %0 ], [ %1, %alloc_var.exit ]
  ret ptr %.0
}